; ModuleID = '20/419.c'
source_filename = "20/419.c"
target datalayout = "e-m:e-p270:32:32-p271:32:32-p272:64:64-i64:64-f80:128-n8:16:32:64-S128"
target triple = "x86_64-pc-linux-gnu"

@.str = private unnamed_addr constant [6 x i8] c"%s %s\00", align 1
@.str.1 = private unnamed_addr constant [4 x i8] c"%s\0A\00", align 1

; Function Attrs: noinline nounwind uwtable
define dso_local i32 @main() #0 {
  %1 = alloca i32, align 4
  %2 = alloca i32, align 4
  %3 = alloca i32, align 4
  %4 = alloca i32, align 4
  %5 = alloca i32, align 4
  %6 = alloca [11 x i8], align 1
  %7 = alloca [4 x i8], align 1
  %8 = alloca [15 x i8], align 1
  store i32 0, i32* %1, align 4
  br label %9

9:                                                ; preds = %98, %0
  %10 = getelementptr inbounds [11 x i8], [11 x i8]* %6, i64 0, i64 0
  %11 = getelementptr inbounds [4 x i8], [4 x i8]* %7, i64 0, i64 0
  %12 = call i32 (i8*, ...) @__isoc99_scanf(i8* getelementptr inbounds ([6 x i8], [6 x i8]* @.str, i64 0, i64 0), i8* %10, i8* %11)
  %13 = icmp ne i32 %12, -1
  br i1 %13, label %14, label %101

14:                                               ; preds = %9
  %15 = getelementptr inbounds [11 x i8], [11 x i8]* %6, i64 0, i64 0
  %16 = call i64 @strlen(i8* %15) #3
  %17 = trunc i64 %16 to i32
  store i32 %17, i32* %2, align 4
  store i32 0, i32* %4, align 4
  store i32 1, i32* %5, align 4
  br label %18

18:                                               ; preds = %37, %14
  %19 = load i32, i32* %5, align 4
  %20 = load i32, i32* %2, align 4
  %21 = icmp slt i32 %19, %20
  br i1 %21, label %22, label %40

22:                                               ; preds = %18
  %23 = load i32, i32* %4, align 4
  %24 = sext i32 %23 to i64
  %25 = getelementptr inbounds [11 x i8], [11 x i8]* %6, i64 0, i64 %24
  %26 = load i8, i8* %25, align 1
  %27 = sext i8 %26 to i32
  %28 = load i32, i32* %5, align 4
  %29 = sext i32 %28 to i64
  %30 = getelementptr inbounds [11 x i8], [11 x i8]* %6, i64 0, i64 %29
  %31 = load i8, i8* %30, align 1
  %32 = sext i8 %31 to i32
  %33 = icmp slt i32 %27, %32
  br i1 %33, label %34, label %36

34:                                               ; preds = %22
  %35 = load i32, i32* %5, align 4
  store i32 %35, i32* %4, align 4
  br label %36

36:                                               ; preds = %34, %22
  br label %37

37:                                               ; preds = %36
  %38 = load i32, i32* %5, align 4
  %39 = add nsw i32 %38, 1
  store i32 %39, i32* %5, align 4
  br label %18

40:                                               ; preds = %18
  store i32 0, i32* %3, align 4
  br label %41

41:                                               ; preds = %53, %40
  %42 = load i32, i32* %3, align 4
  %43 = load i32, i32* %4, align 4
  %44 = icmp sle i32 %42, %43
  br i1 %44, label %45, label %56

45:                                               ; preds = %41
  %46 = load i32, i32* %3, align 4
  %47 = sext i32 %46 to i64
  %48 = getelementptr inbounds [11 x i8], [11 x i8]* %6, i64 0, i64 %47
  %49 = load i8, i8* %48, align 1
  %50 = load i32, i32* %3, align 4
  %51 = sext i32 %50 to i64
  %52 = getelementptr inbounds [15 x i8], [15 x i8]* %8, i64 0, i64 %51
  store i8 %49, i8* %52, align 1
  br label %53

53:                                               ; preds = %45
  %54 = load i32, i32* %3, align 4
  %55 = add nsw i32 %54, 1
  store i32 %55, i32* %3, align 4
  br label %41

56:                                               ; preds = %41
  store i32 1, i32* %3, align 4
  br label %57

57:                                               ; preds = %71, %56
  %58 = load i32, i32* %3, align 4
  %59 = icmp slt i32 %58, 4
  br i1 %59, label %60, label %74

60:                                               ; preds = %57
  %61 = load i32, i32* %3, align 4
  %62 = sub nsw i32 %61, 1
  %63 = sext i32 %62 to i64
  %64 = getelementptr inbounds [4 x i8], [4 x i8]* %7, i64 0, i64 %63
  %65 = load i8, i8* %64, align 1
  %66 = load i32, i32* %4, align 4
  %67 = load i32, i32* %3, align 4
  %68 = add nsw i32 %66, %67
  %69 = sext i32 %68 to i64
  %70 = getelementptr inbounds [15 x i8], [15 x i8]* %8, i64 0, i64 %69
  store i8 %65, i8* %70, align 1
  br label %71

71:                                               ; preds = %60
  %72 = load i32, i32* %3, align 4
  %73 = add nsw i32 %72, 1
  store i32 %73, i32* %3, align 4
  br label %57

74:                                               ; preds = %57
  store i32 0, i32* %3, align 4
  br label %75

75:                                               ; preds = %95, %74
  %76 = load i32, i32* %3, align 4
  %77 = load i32, i32* %2, align 4
  %78 = load i32, i32* %4, align 4
  %79 = sub nsw i32 %77, %78
  %80 = icmp sle i32 %76, %79
  br i1 %80, label %81, label %98

81:                                               ; preds = %75
  %82 = load i32, i32* %4, align 4
  %83 = load i32, i32* %3, align 4
  %84 = add nsw i32 %82, %83
  %85 = add nsw i32 %84, 1
  %86 = sext i32 %85 to i64
  %87 = getelementptr inbounds [11 x i8], [11 x i8]* %6, i64 0, i64 %86
  %88 = load i8, i8* %87, align 1
  %89 = load i32, i32* %4, align 4
  %90 = add nsw i32 %89, 4
  %91 = load i32, i32* %3, align 4
  %92 = add nsw i32 %90, %91
  %93 = sext i32 %92 to i64
  %94 = getelementptr inbounds [15 x i8], [15 x i8]* %8, i64 0, i64 %93
  store i8 %88, i8* %94, align 1
  br label %95

95:                                               ; preds = %81
  %96 = load i32, i32* %3, align 4
  %97 = add nsw i32 %96, 1
  store i32 %97, i32* %3, align 4
  br label %75

98:                                               ; preds = %75
  %99 = getelementptr inbounds [15 x i8], [15 x i8]* %8, i64 0, i64 0
  %100 = call i32 (i8*, ...) @printf(i8* getelementptr inbounds ([4 x i8], [4 x i8]* @.str.1, i64 0, i64 0), i8* %99)
  br label %9

101:                                              ; preds = %9
  %102 = load i32, i32* %1, align 4
  ret i32 %102
}

declare dso_local i32 @__isoc99_scanf(i8*, ...) #1

; Function Attrs: nounwind readonly
declare dso_local i64 @strlen(i8*) #2

declare dso_local i32 @printf(i8*, ...) #1


!llvm.module.flags = !{!0}
!llvm.ident = !{!1}

!0 = !{i32 1, !"wchar_size", i32 4}
!1 = !{!"clang version 10.0.0-4ubuntu1 "}
